target datalayout = "e-m:e-p270:32:32-p271:32:32-p272:64:64-i64:64-i128:128-f80:128-n8:16:32:64-S128"
target triple = "x86_64-unknown-linux-gnu"

%class.anon.254 = type { i8 }

@.str.204 = private unnamed_addr constant [2 x i8] c"\0A\00", align 1
@.str.251 = private unnamed_addr constant [2 x i8] c".\00", align 1

; Function Attrs: mustprogress uwtable
define internal void @"_ZZ26llama_load_model_from_fileENK3$_0clEfPv"(ptr noundef nonnull align 1 dereferenceable(1) %this, float noundef %progress, ptr noundef %ctx) #2 align 2 {
entry:
  %this.addr = alloca ptr, align 8
  %progress.addr = alloca float, align 4
  %ctx.addr = alloca ptr, align 8
  %cur_percentage_p = alloca ptr, align 8
  %percentage = alloca i32, align 4
  store ptr %this, ptr %this.addr, align 8
  store float %progress, ptr %progress.addr, align 4
  store ptr %ctx, ptr %ctx.addr, align 8
  %0 = load ptr, ptr %ctx.addr, align 8
  store ptr %0, ptr %cur_percentage_p, align 8
  %1 = load float, ptr %progress.addr, align 4
  %mul = fmul float 1.000000e+02, %1
  %conv = fptoui float %mul to i32
  store i32 %conv, ptr %percentage, align 4
  br label %while.cond

while.cond:                                       ; preds = %if.end, %entry
  %2 = load i32, ptr %percentage, align 4
  %3 = load ptr, ptr %cur_percentage_p, align 8
  %4 = load i32, ptr %3, align 4
  %cmp = icmp ugt i32 %2, %4
  br i1 %cmp, label %while.body, label %while.end

while.body:                                       ; preds = %while.cond
  %5 = load i32, ptr %percentage, align 4
  %6 = load ptr, ptr %cur_percentage_p, align 8
  store i32 %5, ptr %6, align 4
  call void (i32, ptr, ...) @_ZL18llama_log_internal14ggml_log_levelPKcz(i32 noundef 4, ptr noundef @.str.251)
  %7 = load i32, ptr %percentage, align 4
  %cmp2 = icmp uge i32 %7, 100
  br i1 %cmp2, label %if.then, label %if.end

if.then:                                          ; preds = %while.body
  call void (i32, ptr, ...) @_ZL18llama_log_internal14ggml_log_levelPKcz(i32 noundef 4, ptr noundef @.str.204)
  br label %if.end

if.end:                                           ; preds = %if.then, %while.body
  br label %while.cond, !llvm.loop !129

while.end:                                        ; preds = %while.cond
  ret void
}

; Function Attrs: mustprogress uwtable
define internal void @"_ZZ26llama_load_model_from_fileEN3$_08__invokeEfPv"(float noundef %progress, ptr noundef %ctx) #2 align 2 {
entry:
  %progress.addr = alloca float, align 4
  %ctx.addr = alloca ptr, align 8
  %unused.capture = alloca %class.anon.254, align 1
  store float %progress, ptr %progress.addr, align 4
  store ptr %ctx, ptr %ctx.addr, align 8
  %0 = load float, ptr %progress.addr, align 4
  %1 = load ptr, ptr %ctx.addr, align 8
  call void @"_ZZ26llama_load_model_from_fileENK3$_0clEfPv"(ptr noundef nonnull align 1 dereferenceable(1) %unused.capture, float noundef %0, ptr noundef %1)
  ret void
}