; Function Attrs: mustprogress uwtable
define internal void @"_ZZ26llama_load_model_from_fileEN3$_08__invokeEfPv"(float noundef %progress, ptr nocapture noundef %ctx) #2 align 2 {
entry:
  %mul.i = fmul float %progress, 1.000000e+02
  %conv.i = fptoui float %mul.i to i32
  %conv.fr.i = freeze i32 %conv.i
  %0 = load i32, ptr %ctx, align 4
  %cmp1.i = icmp ult i32 %0, %conv.fr.i
  br i1 %cmp1.i, label %while.body.lr.ph.i, label %"_ZZ26llama_load_model_from_fileENK3$_0clEfPv.exit"

while.body.lr.ph.i:                               ; preds = %entry
  %cmp2.i = icmp ugt i32 %conv.fr.i, 99
  br i1 %cmp2.i, label %while.body.us.i, label %while.body.i

while.body.us.i:                                  ; preds = %while.body.lr.ph.i, %while.body.us.i
  store i32 %conv.fr.i, ptr %ctx, align 4
  tail call void (i32, ptr, ...) @_ZL18llama_log_internal14ggml_log_levelPKcz(i32 noundef 4, ptr noundef nonnull @.str.251)
  tail call void (i32, ptr, ...) @_ZL18llama_log_internal14ggml_log_levelPKcz(i32 noundef 4, ptr noundef nonnull @.str.204)
  %1 = load i32, ptr %ctx, align 4
  %cmp.us.i = icmp ult i32 %1, %conv.fr.i
  br i1 %cmp.us.i, label %while.body.us.i, label %"_ZZ26llama_load_model_from_fileENK3$_0clEfPv.exit", !llvm.loop !280

while.body.i:                                     ; preds = %while.body.lr.ph.i, %while.body.i
  store i32 %conv.fr.i, ptr %ctx, align 4
  tail call void (i32, ptr, ...) @_ZL18llama_log_internal14ggml_log_levelPKcz(i32 noundef 4, ptr noundef nonnull @.str.251)
  %2 = load i32, ptr %ctx, align 4
  %cmp.i = icmp ult i32 %2, %conv.fr.i
  br i1 %cmp.i, label %while.body.i, label %"_ZZ26llama_load_model_from_fileENK3$_0clEfPv.exit", !llvm.loop !280

"_ZZ26llama_load_model_from_fileENK3$_0clEfPv.exit": ; preds = %while.body.i, %while.body.us.i, %entry
  ret void
}